target datalayout = "e-m:e-p270:32:32-p271:32:32-p272:64:64-i64:64-i128:128-f80:128-n8:16:32:64-S128"
target triple = "x86_64-pc-linux-gnu"

%"struct.Luau::CodeGen::A64::RegisterA64" = type { i8 }
%"class.Luau::CodeGen::A64::AssemblyBuilderA64" = type { %"class.std::vector", %"class.std::vector.0", %"class.std::__cxx11::basic_string", i8, i32, i32, %"class.std::vector.8", %"class.std::vector.0", i8, i8, i64, ptr, ptr }
%"class.std::vector" = type { %"struct.std::_Vector_base" }
%"struct.std::_Vector_base" = type { %"struct.std::_Vector_base<unsigned char, std::allocator<unsigned char>>::_Vector_impl" }
%"struct.std::_Vector_base<unsigned char, std::allocator<unsigned char>>::_Vector_impl" = type { %"struct.std::_Vector_base<unsigned char, std::allocator<unsigned char>>::_Vector_impl_data" }
%"struct.std::_Vector_base<unsigned char, std::allocator<unsigned char>>::_Vector_impl_data" = type { ptr, ptr, ptr }
%"class.std::__cxx11::basic_string" = type { %"struct.std::__cxx11::basic_string<char>::_Alloc_hider", i64, %union.anon }
%"struct.std::__cxx11::basic_string<char>::_Alloc_hider" = type { ptr }
%union.anon = type { i64, [8 x i8] }
%"class.std::vector.8" = type { %"struct.std::_Vector_base.9" }
%"struct.std::_Vector_base.9" = type { %"struct.std::_Vector_base<Luau::CodeGen::A64::AssemblyBuilderA64::Patch, std::allocator<Luau::CodeGen::A64::AssemblyBuilderA64::Patch>>::_Vector_impl" }
%"struct.std::_Vector_base<Luau::CodeGen::A64::AssemblyBuilderA64::Patch, std::allocator<Luau::CodeGen::A64::AssemblyBuilderA64::Patch>>::_Vector_impl" = type { %"struct.std::_Vector_base<Luau::CodeGen::A64::AssemblyBuilderA64::Patch, std::allocator<Luau::CodeGen::A64::AssemblyBuilderA64::Patch>>::_Vector_impl_data" }
%"struct.std::_Vector_base<Luau::CodeGen::A64::AssemblyBuilderA64::Patch, std::allocator<Luau::CodeGen::A64::AssemblyBuilderA64::Patch>>::_Vector_impl_data" = type { ptr, ptr, ptr }
%"class.std::vector.0" = type { %"struct.std::_Vector_base.1" }
%"struct.std::_Vector_base.1" = type { %"struct.std::_Vector_base<unsigned int, std::allocator<unsigned int>>::_Vector_impl" }
%"struct.std::_Vector_base<unsigned int, std::allocator<unsigned int>>::_Vector_impl" = type { %"struct.std::_Vector_base<unsigned int, std::allocator<unsigned int>>::_Vector_impl_data" }
%"struct.std::_Vector_base<unsigned int, std::allocator<unsigned int>>::_Vector_impl_data" = type { ptr, ptr, ptr }
%"struct.Luau::CodeGen::A64::AddressA64" = type { i8, %"struct.Luau::CodeGen::A64::RegisterA64", %"struct.Luau::CodeGen::A64::RegisterA64", i32 }

@.str.33 = private unnamed_addr constant [4 x i8] c"ldp\00", align 1

; Function Attrs: mustprogress uwtable
define dso_local void @_ZN4Luau7CodeGen3A6418AssemblyBuilderA646commitEv(ptr noundef nonnull align 8 dereferenceable(176) %0) #0 align 2 {
  %2 = alloca ptr, align 8
  store ptr %0, ptr %2, align 8, !tbaa !4
  %3 = load ptr, ptr %2, align 8
  %4 = getelementptr inbounds nuw %"class.Luau::CodeGen::A64::AssemblyBuilderA64", ptr %3, i32 0, i32 12
  %5 = load ptr, ptr %4, align 8, !tbaa !41
  %6 = getelementptr inbounds nuw %"class.Luau::CodeGen::A64::AssemblyBuilderA64", ptr %3, i32 0, i32 11
  %7 = load ptr, ptr %6, align 8, !tbaa !40
  %8 = icmp eq ptr %5, %7
  br i1 %8, label %9, label %10

9:                                                ; preds = %1
  call void @_ZN4Luau7CodeGen3A6418AssemblyBuilderA646extendEv(ptr noundef nonnull align 8 dereferenceable(176) %3)
  br label %10

10:                                               ; preds = %9, %1
  ret void
}

; Function Attrs: mustprogress nounwind uwtable
define dso_local void @_ZN4Luau7CodeGen3A6418AssemblyBuilderA645placeEj(ptr noundef nonnull align 8 dereferenceable(176) %0, i32 noundef %1) #1 align 2 {
  %3 = alloca ptr, align 8
  %4 = alloca i32, align 4
  store ptr %0, ptr %3, align 8, !tbaa !4
  store i32 %1, ptr %4, align 4, !tbaa !11
  %5 = load ptr, ptr %3, align 8
  %6 = load i32, ptr %4, align 4, !tbaa !11
  %7 = getelementptr inbounds nuw %"class.Luau::CodeGen::A64::AssemblyBuilderA64", ptr %5, i32 0, i32 11
  %8 = load ptr, ptr %7, align 8, !tbaa !40
  %9 = getelementptr inbounds nuw i32, ptr %8, i32 1
  store ptr %9, ptr %7, align 8, !tbaa !40
  store i32 %6, ptr %8, align 4, !tbaa !11
  ret void
}

; Function Attrs: mustprogress uwtable
define dso_local void @_ZN4Luau7CodeGen3A6418AssemblyBuilderA646placePEPKcNS1_11RegisterA64ES5_NS1_10AddressA64Ehhi(ptr noundef nonnull align 8 dereferenceable(176) %0, ptr noundef %1, i8 %2, i8 %3, i64 %4, i8 noundef zeroext %5, i8 noundef zeroext %6, i32 noundef %7) #0 align 2 {
  %9 = alloca %"struct.Luau::CodeGen::A64::RegisterA64", align 1
  %10 = alloca %"struct.Luau::CodeGen::A64::RegisterA64", align 1
  %11 = alloca %"struct.Luau::CodeGen::A64::AddressA64", align 4
  %12 = alloca ptr, align 8
  %13 = alloca ptr, align 8
  %14 = alloca i8, align 1
  %15 = alloca i8, align 1
  %16 = alloca i32, align 4
  %17 = alloca %"struct.Luau::CodeGen::A64::RegisterA64", align 1
  %18 = alloca %"struct.Luau::CodeGen::A64::RegisterA64", align 1
  %19 = alloca %"struct.Luau::CodeGen::A64::AddressA64", align 4
  %20 = getelementptr inbounds nuw %"struct.Luau::CodeGen::A64::RegisterA64", ptr %9, i32 0, i32 0
  store i8 %2, ptr %20, align 1
  %21 = getelementptr inbounds nuw %"struct.Luau::CodeGen::A64::RegisterA64", ptr %10, i32 0, i32 0
  store i8 %3, ptr %21, align 1
  store i64 %4, ptr %11, align 4
  store ptr %0, ptr %12, align 8, !tbaa !4
  store ptr %1, ptr %13, align 8, !tbaa !61
  store i8 %5, ptr %14, align 1, !tbaa !58
  store i8 %6, ptr %15, align 1, !tbaa !58
  store i32 %7, ptr %16, align 4, !tbaa !11
  %22 = load ptr, ptr %12, align 8
  %23 = getelementptr inbounds nuw %"class.Luau::CodeGen::A64::AssemblyBuilderA64", ptr %22, i32 0, i32 3
  %24 = load i8, ptr %23, align 8, !tbaa !15, !range !13, !noundef !14
  %25 = trunc i8 %24 to i1
  br i1 %25, label %26, label %33

26:                                               ; preds = %8
  %27 = load ptr, ptr %13, align 8, !tbaa !61
  call void @llvm.memcpy.p0.p0.i64(ptr align 1 %17, ptr align 1 %9, i64 1, i1 false), !tbaa.struct !57
  call void @llvm.memcpy.p0.p0.i64(ptr align 1 %18, ptr align 1 %10, i64 1, i1 false), !tbaa.struct !57
  call void @llvm.memcpy.p0.p0.i64(ptr align 4 %19, ptr align 4 %11, i64 8, i1 false), !tbaa.struct !66
  %28 = getelementptr inbounds nuw %"struct.Luau::CodeGen::A64::RegisterA64", ptr %17, i32 0, i32 0
  %29 = load i8, ptr %28, align 1
  %30 = getelementptr inbounds nuw %"struct.Luau::CodeGen::A64::RegisterA64", ptr %18, i32 0, i32 0
  %31 = load i8, ptr %30, align 1
  %32 = load i64, ptr %19, align 4
  call void @_ZN4Luau7CodeGen3A6418AssemblyBuilderA643logEPKcNS1_11RegisterA64ES5_NS1_10AddressA64E(ptr noundef nonnull align 8 dereferenceable(176) %22, ptr noundef %27, i8 %29, i8 %31, i64 %32)
  br label %33

33:                                               ; preds = %26, %8
  %34 = load i8, ptr %9, align 1
  %35 = lshr i8 %34, 3
  %36 = zext i8 %35 to i32
  %37 = getelementptr inbounds nuw %"struct.Luau::CodeGen::A64::AddressA64", ptr %11, i32 0, i32 1
  %38 = load i8, ptr %37, align 1
  %39 = lshr i8 %38, 3
  %40 = zext i8 %39 to i32
  %41 = shl i32 %40, 5
  %42 = or i32 %36, %41
  %43 = load i8, ptr %10, align 1
  %44 = lshr i8 %43, 3
  %45 = zext i8 %44 to i32
  %46 = shl i32 %45, 10
  %47 = or i32 %42, %46
  %48 = getelementptr inbounds nuw %"struct.Luau::CodeGen::A64::AddressA64", ptr %11, i32 0, i32 3
  %49 = load i32, ptr %48, align 4, !tbaa !73
  %50 = load i32, ptr %16, align 4, !tbaa !11
  %51 = ashr i32 %49, %50
  %52 = and i32 %51, 127
  %53 = shl i32 %52, 15
  %54 = or i32 %47, %53
  %55 = load i8, ptr %14, align 1, !tbaa !58
  %56 = zext i8 %55 to i32
  %57 = shl i32 %56, 22
  %58 = or i32 %54, %57
  %59 = load i8, ptr %15, align 1, !tbaa !58
  %60 = zext i8 %59 to i32
  %61 = shl i32 %60, 30
  %62 = or i32 %58, %61
  call void @_ZN4Luau7CodeGen3A6418AssemblyBuilderA645placeEj(ptr noundef nonnull align 8 dereferenceable(176) %22, i32 noundef %62)
  call void @_ZN4Luau7CodeGen3A6418AssemblyBuilderA646commitEv(ptr noundef nonnull align 8 dereferenceable(176) %22)
  ret void
}

; Function Attrs: mustprogress uwtable
define dso_local void @_ZN4Luau7CodeGen3A6418AssemblyBuilderA643ldpENS1_11RegisterA64ES3_NS1_10AddressA64E(ptr noundef nonnull align 8 dereferenceable(176) %0, i8 %1, i8 %2, i64 %3) #0 align 2 {
  %5 = alloca %"struct.Luau::CodeGen::A64::RegisterA64", align 1
  %6 = alloca %"struct.Luau::CodeGen::A64::RegisterA64", align 1
  %7 = alloca %"struct.Luau::CodeGen::A64::AddressA64", align 4
  %8 = alloca ptr, align 8
  %9 = alloca %"struct.Luau::CodeGen::A64::RegisterA64", align 1
  %10 = alloca %"struct.Luau::CodeGen::A64::RegisterA64", align 1
  %11 = alloca %"struct.Luau::CodeGen::A64::AddressA64", align 4
  %12 = getelementptr inbounds nuw %"struct.Luau::CodeGen::A64::RegisterA64", ptr %5, i32 0, i32 0
  store i8 %1, ptr %12, align 1
  %13 = getelementptr inbounds nuw %"struct.Luau::CodeGen::A64::RegisterA64", ptr %6, i32 0, i32 0
  store i8 %2, ptr %13, align 1
  store i64 %3, ptr %7, align 4
  store ptr %0, ptr %8, align 8, !tbaa !4
  %14 = load ptr, ptr %8, align 8
  call void @llvm.memcpy.p0.p0.i64(ptr align 1 %9, ptr align 1 %5, i64 1, i1 false), !tbaa.struct !57
  call void @llvm.memcpy.p0.p0.i64(ptr align 1 %10, ptr align 1 %6, i64 1, i1 false), !tbaa.struct !57
  call void @llvm.memcpy.p0.p0.i64(ptr align 4 %11, ptr align 4 %7, i64 8, i1 false), !tbaa.struct !66
  %15 = load i8, ptr %5, align 1
  %16 = and i8 %15, 7
  %17 = icmp eq i8 %16, 2
  %18 = zext i1 %17 to i8
  %19 = zext i8 %18 to i32
  %20 = shl i32 %19, 1
  %21 = trunc i32 %20 to i8
  %22 = load i8, ptr %5, align 1
  %23 = and i8 %22, 7
  %24 = icmp eq i8 %23, 2
  %25 = select i1 %24, i32 3, i32 2
  %26 = getelementptr inbounds nuw %"struct.Luau::CodeGen::A64::RegisterA64", ptr %9, i32 0, i32 0
  %27 = load i8, ptr %26, align 1
  %28 = getelementptr inbounds nuw %"struct.Luau::CodeGen::A64::RegisterA64", ptr %10, i32 0, i32 0
  %29 = load i8, ptr %28, align 1
  %30 = load i64, ptr %11, align 4
  call void @_ZN4Luau7CodeGen3A6418AssemblyBuilderA646placePEPKcNS1_11RegisterA64ES5_NS1_10AddressA64Ehhi(ptr noundef nonnull align 8 dereferenceable(176) %14, ptr noundef @.str.33, i8 %27, i8 %29, i64 %30, i8 noundef zeroext -91, i8 noundef zeroext %21, i32 noundef %25)
  ret void
}