; Function Attrs: mustprogress uwtable
define dso_local void @_ZN4Luau7CodeGen3A6418AssemblyBuilderA643ldpENS1_11RegisterA64ES3_NS1_10AddressA64E(ptr noundef nonnull align 8 dereferenceable(176) %0, i8 %1, i8 %2, i64 %3) local_unnamed_addr #0 align 2 {
  %5 = and i8 %1, 7
  %6 = icmp eq i8 %5, 2
  %7 = select i1 %6, i32 -2147483648, i32 0
  %8 = select i1 %6, i32 3, i32 2
  %9 = getelementptr inbounds nuw i8, ptr %0, i64 80
  %10 = load i8, ptr %9, align 8, !tbaa !14, !range !46, !noundef !47
  %11 = trunc nuw i8 %10 to i1
  br i1 %11, label %12, label %13

12:                                               ; preds = %4
  tail call void @_ZN4Luau7CodeGen3A6418AssemblyBuilderA643logEPKcNS1_11RegisterA64ES5_NS1_10AddressA64E(ptr noundef nonnull align 8 dereferenceable(176) %0, ptr noundef nonnull @.str.33, i8 %1, i8 %2, i64 %3)
  br label %13

13:                                               ; preds = %12, %4
  %.sroa.37.0.extract.shift.i = lshr i64 %3, 32
  %.sroa.37.0.extract.trunc.i = trunc nuw i64 %.sroa.37.0.extract.shift.i to i32
  %14 = lshr i8 %1, 3
  %15 = zext nneg i8 %14 to i32
  %16 = trunc i64 %3 to i32
  %17 = lshr i32 %16, 6
  %18 = and i32 %17, 992
  %19 = or disjoint i32 %18, %15
  %20 = lshr i8 %2, 3
  %21 = zext nneg i8 %20 to i32
  %22 = shl nuw nsw i32 %21, 10
  %23 = or disjoint i32 %19, %22
  %24 = ashr i32 %.sroa.37.0.extract.trunc.i, %8
  %25 = shl i32 %24, 15
  %26 = and i32 %25, 4161536
  %27 = or disjoint i32 %26, %23
  %28 = or disjoint i32 %27, %7
  %29 = or disjoint i32 %28, 692060160
  %30 = getelementptr inbounds nuw i8, ptr %0, i64 160
  %31 = load ptr, ptr %30, align 8, !tbaa !39
  %32 = getelementptr inbounds nuw i8, ptr %31, i64 4
  store ptr %32, ptr %30, align 8, !tbaa !39
  store i32 %29, ptr %31, align 4, !tbaa !48
  %33 = getelementptr inbounds nuw i8, ptr %0, i64 168
  %34 = load ptr, ptr %33, align 8, !tbaa !40
  %35 = icmp eq ptr %34, %32
  br i1 %35, label %36, label %_ZN4Luau7CodeGen3A6418AssemblyBuilderA646placePEPKcNS1_11RegisterA64ES5_NS1_10AddressA64Ehhi.exit

36:                                               ; preds = %13
  tail call void @_ZN4Luau7CodeGen3A6418AssemblyBuilderA646extendEv(ptr noundef nonnull align 8 dereferenceable(176) %0)
  br label %_ZN4Luau7CodeGen3A6418AssemblyBuilderA646placePEPKcNS1_11RegisterA64ES5_NS1_10AddressA64Ehhi.exit

_ZN4Luau7CodeGen3A6418AssemblyBuilderA646placePEPKcNS1_11RegisterA64ES5_NS1_10AddressA64Ehhi.exit: ; preds = %13, %36
  ret void
}